target datalayout = "e-m:e-p270:32:32-p271:32:32-p272:64:64-i64:64-i128:128-f80:128-n8:16:32:64-S128"
target triple = "x86_64-unknown-linux-gnu"

%"class.icu_75::Measure" = type { %"class.icu_75::UObject", %"class.icu_75::Formattable", ptr }
%"class.icu_75::UObject" = type { ptr }
%"class.icu_75::Formattable" = type { %"class.icu_75::UObject", %union.anon, ptr, ptr, i32, %"class.icu_75::UnicodeString" }
%union.anon = type { %struct.anon }
%struct.anon = type { ptr, i32 }
%"class.icu_75::UnicodeString" = type { %"class.icu_75::Replaceable", %"union.icu_75::UnicodeString::StackBufferOrFields" }
%"class.icu_75::Replaceable" = type { %"class.icu_75::UObject" }
%"union.icu_75::UnicodeString::StackBufferOrFields" = type { %struct.anon.1, [32 x i8] }
%struct.anon.1 = type { i16, i32, i32, ptr }

@_ZTVN6icu_757MeasureE = unnamed_addr constant { [6 x ptr] } { [6 x ptr] [ptr null, ptr @_ZTIN6icu_757MeasureE, ptr @_ZN6icu_757MeasureD1Ev, ptr @_ZN6icu_757MeasureD0Ev, ptr @_ZNK6icu_757Measure17getDynamicClassIDEv, ptr @_ZNK6icu_757Measure5cloneEv] }, align 8
@_ZTVN6icu_757UObjectE = external unnamed_addr constant { [5 x ptr] }, align 8

; Function Attrs: mustprogress uwtable
define noundef nonnull align 8 dereferenceable(128) ptr @_ZN6icu_757MeasureaSERKS0_(ptr noundef nonnull align 8 dereferenceable(128) %this, ptr noundef nonnull align 8 dereferenceable(128) %other) #1 align 2 {
entry:
  %this.addr = alloca ptr, align 8
  %other.addr = alloca ptr, align 8
  store ptr %this, ptr %this.addr, align 8
  store ptr %other, ptr %other.addr, align 8
  %this1 = load ptr, ptr %this.addr, align 8
  %0 = load ptr, ptr %other.addr, align 8
  %cmp = icmp ne ptr %this1, %0
  br i1 %cmp, label %if.then, label %if.end12

if.then:                                          ; preds = %entry
  %unit = getelementptr inbounds %"class.icu_75::Measure", ptr %this1, i32 0, i32 2
  %1 = load ptr, ptr %unit, align 8
  %isnull = icmp eq ptr %1, null
  br i1 %isnull, label %delete.end, label %delete.notnull

delete.notnull:                                   ; preds = %if.then
  %vtable = load ptr, ptr %1, align 8
  %vfn = getelementptr inbounds ptr, ptr %vtable, i64 1
  %2 = load ptr, ptr %vfn, align 8
  call void %2(ptr noundef nonnull align 8 dereferenceable(19) %1) #4
  br label %delete.end

delete.end:                                       ; preds = %delete.notnull, %if.then
  %3 = load ptr, ptr %other.addr, align 8
  %number = getelementptr inbounds %"class.icu_75::Measure", ptr %3, i32 0, i32 1
  %number2 = getelementptr inbounds %"class.icu_75::Measure", ptr %this1, i32 0, i32 1
  %call = call noundef nonnull align 8 dereferenceable(112) ptr @_ZN6icu_7511FormattableaSERKS0_(ptr noundef nonnull align 8 dereferenceable(112) %number2, ptr noundef nonnull align 8 dereferenceable(112) %number)
  %4 = load ptr, ptr %other.addr, align 8
  %unit3 = getelementptr inbounds %"class.icu_75::Measure", ptr %4, i32 0, i32 2
  %5 = load ptr, ptr %unit3, align 8
  %cmp4 = icmp ne ptr %5, null
  br i1 %cmp4, label %if.then5, label %if.else

if.then5:                                         ; preds = %delete.end
  %6 = load ptr, ptr %other.addr, align 8
  %unit6 = getelementptr inbounds %"class.icu_75::Measure", ptr %6, i32 0, i32 2
  %7 = load ptr, ptr %unit6, align 8
  %vtable7 = load ptr, ptr %7, align 8
  %vfn8 = getelementptr inbounds ptr, ptr %vtable7, i64 3
  %8 = load ptr, ptr %vfn8, align 8
  %call9 = call noundef ptr %8(ptr noundef nonnull align 8 dereferenceable(19) %7)
  %unit10 = getelementptr inbounds %"class.icu_75::Measure", ptr %this1, i32 0, i32 2
  store ptr %call9, ptr %unit10, align 8
  br label %if.end

if.else:                                          ; preds = %delete.end
  %unit11 = getelementptr inbounds %"class.icu_75::Measure", ptr %this1, i32 0, i32 2
  store ptr null, ptr %unit11, align 8
  br label %if.end

if.end:                                           ; preds = %if.else, %if.then5
  br label %if.end12

if.end12:                                         ; preds = %if.end, %entry
  ret ptr %this1
}

; Function Attrs: mustprogress nounwind uwtable
define linkonce_odr void @_ZN6icu_757UObjectC2ERKS0_(ptr noundef nonnull align 8 dereferenceable(8) %this, ptr noundef nonnull align 8 dereferenceable(8) %0) unnamed_addr #0 comdat align 2 {
entry:
  %this.addr = alloca ptr, align 8
  %.addr = alloca ptr, align 8
  store ptr %this, ptr %this.addr, align 8
  store ptr %0, ptr %.addr, align 8
  %this1 = load ptr, ptr %this.addr, align 8
  store ptr getelementptr inbounds ({ [5 x ptr] }, ptr @_ZTVN6icu_757UObjectE, i32 0, i32 0, i32 2), ptr %this1, align 8
  ret void
}

; Function Attrs: mustprogress uwtable
define void @_ZN6icu_757MeasureC2ERKS0_(ptr noundef nonnull align 8 dereferenceable(128) %this, ptr noundef nonnull align 8 dereferenceable(128) %other) unnamed_addr #1 align 2 personality ptr @__gxx_personality_v0 {
entry:
  %this.addr = alloca ptr, align 8
  %other.addr = alloca ptr, align 8
  %exn.slot = alloca ptr, align 8
  %ehselector.slot = alloca i32, align 4
  store ptr %this, ptr %this.addr, align 8
  store ptr %other, ptr %other.addr, align 8
  %this1 = load ptr, ptr %this.addr, align 8
  %0 = load ptr, ptr %other.addr, align 8
  call void @_ZN6icu_757UObjectC2ERKS0_(ptr noundef nonnull align 8 dereferenceable(8) %this1, ptr noundef nonnull align 8 dereferenceable(8) %0) #4
  store ptr getelementptr inbounds ({ [6 x ptr] }, ptr @_ZTVN6icu_757MeasureE, i32 0, i32 0, i32 2), ptr %this1, align 8
  %number = getelementptr inbounds %"class.icu_75::Measure", ptr %this1, i32 0, i32 1
  invoke void @_ZN6icu_7511FormattableC1Ev(ptr noundef nonnull align 8 dereferenceable(112) %number)
          to label %invoke.cont unwind label %lpad

invoke.cont:                                      ; preds = %entry
  %unit = getelementptr inbounds %"class.icu_75::Measure", ptr %this1, i32 0, i32 2
  store ptr null, ptr %unit, align 8
  %1 = load ptr, ptr %other.addr, align 8
  %call = invoke noundef nonnull align 8 dereferenceable(128) ptr @_ZN6icu_757MeasureaSERKS0_(ptr noundef nonnull align 8 dereferenceable(128) %this1, ptr noundef nonnull align 8 dereferenceable(128) %1)
          to label %invoke.cont3 unwind label %lpad2

invoke.cont3:                                     ; preds = %invoke.cont
  ret void

lpad:                                             ; preds = %entry
  %2 = landingpad { ptr, i32 }
          cleanup
  %3 = extractvalue { ptr, i32 } %2, 0
  store ptr %3, ptr %exn.slot, align 8
  %4 = extractvalue { ptr, i32 } %2, 1
  store i32 %4, ptr %ehselector.slot, align 4
  br label %ehcleanup

lpad2:                                            ; preds = %invoke.cont
  %5 = landingpad { ptr, i32 }
          cleanup
  %6 = extractvalue { ptr, i32 } %5, 0
  store ptr %6, ptr %exn.slot, align 8
  %7 = extractvalue { ptr, i32 } %5, 1
  store i32 %7, ptr %ehselector.slot, align 4
  call void @_ZN6icu_7511FormattableD1Ev(ptr noundef nonnull align 8 dereferenceable(112) %number) #4
  br label %ehcleanup

ehcleanup:                                        ; preds = %lpad2, %lpad
  call void @_ZN6icu_757UObjectD2Ev(ptr noundef nonnull align 8 dereferenceable(8) %this1) #4
  br label %eh.resume

eh.resume:                                        ; preds = %ehcleanup
  %exn = load ptr, ptr %exn.slot, align 8
  %sel = load i32, ptr %ehselector.slot, align 4
  %lpad.val = insertvalue { ptr, i32 } poison, ptr %exn, 0
  %lpad.val4 = insertvalue { ptr, i32 } %lpad.val, i32 %sel, 1
  resume { ptr, i32 } %lpad.val4
}