; Function Attrs: mustprogress uwtable
define void @_ZN6icu_757MeasureC2ERKS0_(ptr noundef nonnull align 8 dereferenceable(128) %this, ptr noundef nonnull align 8 dereferenceable(128) %other) unnamed_addr #1 align 2 personality ptr @__gxx_personality_v0 {
entry:
  store ptr getelementptr inbounds ({ [6 x ptr] }, ptr @_ZTVN6icu_757MeasureE, i64 0, i32 0, i64 2), ptr %this, align 8
  %number = getelementptr inbounds i8, ptr %this, i64 8
  invoke void @_ZN6icu_7511FormattableC1Ev(ptr noundef nonnull align 8 dereferenceable(112) %number)
          to label %invoke.cont unwind label %lpad

invoke.cont:                                      ; preds = %entry
  %unit = getelementptr inbounds i8, ptr %this, i64 120
  store ptr null, ptr %unit, align 8
  %cmp.not.i = icmp eq ptr %this, %other
  br i1 %cmp.not.i, label %invoke.cont3, label %delete.end.i

delete.end.i:                                     ; preds = %invoke.cont
  %number.i = getelementptr inbounds i8, ptr %other, i64 8
  %call.i3 = invoke noundef nonnull align 8 dereferenceable(112) ptr @_ZN6icu_7511FormattableaSERKS0_(ptr noundef nonnull align 8 dereferenceable(112) %number, ptr noundef nonnull align 8 dereferenceable(112) %number.i)
          to label %call.i.noexc unwind label %lpad2

call.i.noexc:                                     ; preds = %delete.end.i
  %unit3.i = getelementptr inbounds i8, ptr %other, i64 120
  %0 = load ptr, ptr %unit3.i, align 8
  %cmp4.not.i = icmp eq ptr %0, null
  br i1 %cmp4.not.i, label %if.end12.sink.split.i, label %if.then5.i

if.then5.i:                                       ; preds = %call.i.noexc
  %vtable7.i = load ptr, ptr %0, align 8
  %vfn8.i = getelementptr inbounds i8, ptr %vtable7.i, i64 24
  %1 = load ptr, ptr %vfn8.i, align 8
  %call9.i4 = invoke noundef ptr %1(ptr noundef nonnull align 8 dereferenceable(19) %0)
          to label %if.end12.sink.split.i unwind label %lpad2

if.end12.sink.split.i:                            ; preds = %if.then5.i, %call.i.noexc
  %call9.sink.i = phi ptr [ null, %call.i.noexc ], [ %call9.i4, %if.then5.i ]
  store ptr %call9.sink.i, ptr %unit, align 8
  br label %invoke.cont3

invoke.cont3:                                     ; preds = %if.end12.sink.split.i, %invoke.cont
  ret void

lpad:                                             ; preds = %entry
  %2 = landingpad { ptr, i32 }
          cleanup
  br label %ehcleanup

lpad2:                                            ; preds = %if.then5.i, %delete.end.i
  %3 = landingpad { ptr, i32 }
          cleanup
  tail call void @_ZN6icu_7511FormattableD1Ev(ptr noundef nonnull align 8 dereferenceable(112) %number) #6
  br label %ehcleanup

ehcleanup:                                        ; preds = %lpad2, %lpad
  %.pn = phi { ptr, i32 } [ %3, %lpad2 ], [ %2, %lpad ]
  tail call void @_ZN6icu_757UObjectD2Ev(ptr noundef nonnull align 8 dereferenceable(8) %this) #6
  resume { ptr, i32 } %.pn
}